; Function Attrs: mustprogress uwtable
define noundef zeroext i1 @_ZN5Yosys8fgetlineEP8_IO_FILERNSt7__cxx1112basic_stringIcSt11char_traitsIcESaIcEEE(ptr noundef captures(none) %0, ptr noundef nonnull align 8 dereferenceable(32) %1) local_unnamed_addr #5 personality ptr @__gxx_personality_v0 {
  %3 = alloca [4096 x i8], align 16
  %4 = getelementptr inbounds nuw i8, ptr %1, i64 8
  %5 = load i64, ptr %4, align 8, !tbaa !49
  %6 = tail call noundef nonnull align 8 dereferenceable(32) ptr @_ZNSt7__cxx1112basic_stringIcSt11char_traitsIcESaIcEE10_M_replaceEmmPKcm(ptr noundef nonnull align 8 dereferenceable(32) %1, i64 noundef 0, i64 noundef %5, ptr noundef nonnull @.str.321, i64 noundef 0)
  call void @llvm.lifetime.start.p0(i64 4096, ptr nonnull %3) #39
  %7 = call ptr @fgets(ptr noundef nonnull %3, i32 noundef 4096, ptr noundef %0)
  %.not25 = icmp eq ptr %7, null
  br i1 %.not25, label %.critedge, label %.lr.ph

.lr.ph:                                           ; preds = %2, %26
  %8 = call noundef i64 @strlen(ptr noundef nonnull dereferenceable(1) %3) #39
  %9 = load i64, ptr %4, align 8, !tbaa !49
  %10 = sub i64 4611686018427387903, %9
  %11 = icmp ult i64 %10, %8
  br i1 %11, label %12, label %_ZNSt7__cxx1112basic_stringIcSt11char_traitsIcESaIcEEpLEPKc.exit

12:                                               ; preds = %.lr.ph
  call void @_ZSt20__throw_length_errorPKc(ptr noundef nonnull @.str.580) #43
  unreachable

_ZNSt7__cxx1112basic_stringIcSt11char_traitsIcESaIcEEpLEPKc.exit: ; preds = %.lr.ph
  %13 = call noundef nonnull align 8 dereferenceable(32) ptr @_ZNSt7__cxx1112basic_stringIcSt11char_traitsIcESaIcEE9_M_appendEPKcm(ptr noundef nonnull align 8 dereferenceable(32) %1, ptr noundef nonnull %3, i64 noundef %8)
  %14 = load i64, ptr %4, align 8, !tbaa !49
  %.not = icmp eq i64 %14, 0
  br i1 %.not, label %26, label %15

15:                                               ; preds = %_ZNSt7__cxx1112basic_stringIcSt11char_traitsIcESaIcEEpLEPKc.exit
  %16 = load ptr, ptr %1, align 8, !tbaa !44
  %17 = getelementptr i8, ptr %16, i64 %14
  %18 = getelementptr i8, ptr %17, i64 -1
  %19 = load i8, ptr %18, align 1, !tbaa !43
  switch i8 %19, label %26 [
    i8 10, label %.lr.ph23.preheader
    i8 13, label %.lr.ph23.preheader
  ]

.lr.ph23.preheader:                               ; preds = %15, %15
  br label %.lr.ph23

.lr.ph23:                                         ; preds = %.lr.ph23.preheader, %.critedge2
  %20 = phi i64 [ %25, %.critedge2 ], [ %14, %.lr.ph23.preheader ]
  %21 = add i64 %20, -1
  %22 = load ptr, ptr %1, align 8, !tbaa !44
  %23 = getelementptr inbounds nuw i8, ptr %22, i64 %21
  %24 = load i8, ptr %23, align 1, !tbaa !43
  switch i8 %24, label %.critedge [
    i8 10, label %.critedge2
    i8 13, label %.critedge2
  ]

.critedge2:                                       ; preds = %.lr.ph23, %.lr.ph23
  call void @_ZNSt7__cxx1112basic_stringIcSt11char_traitsIcESaIcEE6resizeEmc(ptr noundef nonnull align 8 dereferenceable(32) %1, i64 noundef %21, i8 noundef signext 0)
  %25 = load i64, ptr %4, align 8, !tbaa !49
  %.not18 = icmp eq i64 %25, 0
  br i1 %.not18, label %.critedge, label %.lr.ph23, !llvm.loop !191

26:                                               ; preds = %15, %_ZNSt7__cxx1112basic_stringIcSt11char_traitsIcESaIcEEpLEPKc.exit
  %27 = call ptr @fgets(ptr noundef nonnull %3, i32 noundef 4096, ptr noundef %0)
  %.not26 = icmp eq ptr %27, null
  br i1 %.not26, label %.critedge, label %.lr.ph, !llvm.loop !192

.critedge:                                        ; preds = %26, %.critedge2, %.lr.ph23, %2
  %28 = phi i1 [ false, %2 ], [ true, %.lr.ph23 ], [ true, %.critedge2 ], [ false, %26 ]
  call void @llvm.lifetime.end.p0(i64 4096, ptr nonnull %3) #39
  ret i1 %28
}